target datalayout = "e-m:e-p270:32:32-p271:32:32-p272:64:64-i64:64-i128:128-f80:128-n8:16:32:64-S128"
target triple = "x86_64-pc-linux-gnu"

%struct.RangeCoder = type { i32, i32, i32, i32, [256 x i8], [256 x i8], ptr, ptr, ptr, i32 }

; Function Attrs: cold nounwind optsize uwtable
define void @ff_init_range_encoder(ptr noundef %0, ptr noundef %1, i32 noundef %2) #0 {
  %4 = alloca ptr, align 8
  %5 = alloca ptr, align 8
  %6 = alloca i32, align 4
  store ptr %0, ptr %4, align 8, !tbaa !4
  store ptr %1, ptr %5, align 8, !tbaa !9
  store i32 %2, ptr %6, align 4, !tbaa !11
  %7 = load ptr, ptr %5, align 8, !tbaa !9
  %8 = load ptr, ptr %4, align 8, !tbaa !4
  %9 = getelementptr inbounds nuw %struct.RangeCoder, ptr %8, i32 0, i32 7
  store ptr %7, ptr %9, align 8, !tbaa !13
  %10 = load ptr, ptr %4, align 8, !tbaa !4
  %11 = getelementptr inbounds nuw %struct.RangeCoder, ptr %10, i32 0, i32 6
  store ptr %7, ptr %11, align 8, !tbaa !15
  %12 = load ptr, ptr %5, align 8, !tbaa !9
  %13 = load i32, ptr %6, align 4, !tbaa !11
  %14 = sext i32 %13 to i64
  %15 = getelementptr inbounds i8, ptr %12, i64 %14
  %16 = load ptr, ptr %4, align 8, !tbaa !4
  %17 = getelementptr inbounds nuw %struct.RangeCoder, ptr %16, i32 0, i32 8
  store ptr %15, ptr %17, align 8, !tbaa !16
  %18 = load ptr, ptr %4, align 8, !tbaa !4
  %19 = getelementptr inbounds nuw %struct.RangeCoder, ptr %18, i32 0, i32 0
  store i32 0, ptr %19, align 8, !tbaa !17
  %20 = load ptr, ptr %4, align 8, !tbaa !4
  %21 = getelementptr inbounds nuw %struct.RangeCoder, ptr %20, i32 0, i32 1
  store i32 65280, ptr %21, align 4, !tbaa !18
  %22 = load ptr, ptr %4, align 8, !tbaa !4
  %23 = getelementptr inbounds nuw %struct.RangeCoder, ptr %22, i32 0, i32 2
  store i32 0, ptr %23, align 8, !tbaa !19
  %24 = load ptr, ptr %4, align 8, !tbaa !4
  %25 = getelementptr inbounds nuw %struct.RangeCoder, ptr %24, i32 0, i32 3
  store i32 -1, ptr %25, align 4, !tbaa !20
  ret void
}