; Function Attrs: cold mustprogress nofree norecurse nosync nounwind optsize willreturn memory(argmem: write) uwtable
define void @ff_init_range_encoder(ptr noundef writeonly captures(none) initializes((0, 16), (528, 552)) %0, ptr noundef %1, i32 noundef %2) local_unnamed_addr #0 {
  %4 = getelementptr inbounds nuw i8, ptr %0, i64 536
  store ptr %1, ptr %4, align 8, !tbaa !4
  %5 = getelementptr inbounds nuw i8, ptr %0, i64 528
  store ptr %1, ptr %5, align 8, !tbaa !11
  %6 = sext i32 %2 to i64
  %7 = getelementptr inbounds i8, ptr %1, i64 %6
  %8 = getelementptr inbounds nuw i8, ptr %0, i64 544
  store ptr %7, ptr %8, align 8, !tbaa !12
  store i32 0, ptr %0, align 8, !tbaa !13
  %9 = getelementptr inbounds nuw i8, ptr %0, i64 4
  store i32 65280, ptr %9, align 4, !tbaa !14
  %10 = getelementptr inbounds nuw i8, ptr %0, i64 8
  store i32 0, ptr %10, align 8, !tbaa !15
  %11 = getelementptr inbounds nuw i8, ptr %0, i64 12
  store i32 -1, ptr %11, align 4, !tbaa !16
  ret void
}